target datalayout = "e-m:e-p270:32:32-p271:32:32-p272:64:64-i64:64-i128:128-f80:128-n8:16:32:64-S128"
target triple = "x86_64-unknown-linux-gnu"

%struct.dsa_st = type { i64, ptr, ptr, ptr, ptr, ptr, ptr, ptr, i32, %union.crypto_mutex_st, ptr, i32, %struct.crypto_ex_data_st }
%union.crypto_mutex_st = type { double, [48 x i8] }
%struct.crypto_ex_data_st = type { ptr }
%struct.bignum_st = type { ptr, i32, i32, i32, i32 }

@.str = private unnamed_addr constant [120 x i8] c"generated/home/dtcxzyw/WorkSpace/Projects/compilers/llvm-opt-benchmark/bench/libquic/libquic/boringssl/crypto/dsa/dsa.c\00", align 1

; Function Attrs: nounwind uwtable
define hidden i32 @DSA_sign_setup(ptr noundef %dsa, ptr noundef %ctx_in, ptr noundef %out_kinv, ptr noundef %out_r) #0 {
entry:
  %retval = alloca i32, align 4
  %dsa.addr = alloca ptr, align 8
  %ctx_in.addr = alloca ptr, align 8
  %out_kinv.addr = alloca ptr, align 8
  %out_r.addr = alloca ptr, align 8
  %ctx = alloca ptr, align 8
  %k = alloca %struct.bignum_st, align 8
  %kq = alloca %struct.bignum_st, align 8
  %K = alloca ptr, align 8
  %kinv = alloca ptr, align 8
  %r = alloca ptr, align 8
  %ret = alloca i32, align 4
  store ptr %dsa, ptr %dsa.addr, align 8
  store ptr %ctx_in, ptr %ctx_in.addr, align 8
  store ptr %out_kinv, ptr %out_kinv.addr, align 8
  store ptr %out_r, ptr %out_r.addr, align 8
  store ptr null, ptr %kinv, align 8
  store ptr null, ptr %r, align 8
  store i32 0, ptr %ret, align 4
  %0 = load ptr, ptr %dsa.addr, align 8
  %p = getelementptr inbounds %struct.dsa_st, ptr %0, i32 0, i32 1
  %1 = load ptr, ptr %p, align 8
  %tobool = icmp ne ptr %1, null
  br i1 %tobool, label %lor.lhs.false, label %if.then

lor.lhs.false:                                    ; preds = %entry
  %2 = load ptr, ptr %dsa.addr, align 8
  %q = getelementptr inbounds %struct.dsa_st, ptr %2, i32 0, i32 2
  %3 = load ptr, ptr %q, align 8
  %tobool1 = icmp ne ptr %3, null
  br i1 %tobool1, label %lor.lhs.false2, label %if.then

lor.lhs.false2:                                   ; preds = %lor.lhs.false
  %4 = load ptr, ptr %dsa.addr, align 8
  %g = getelementptr inbounds %struct.dsa_st, ptr %4, i32 0, i32 3
  %5 = load ptr, ptr %g, align 8
  %tobool3 = icmp ne ptr %5, null
  br i1 %tobool3, label %if.end, label %if.then

if.then:                                          ; preds = %lor.lhs.false2, %lor.lhs.false, %entry
  call void @ERR_put_error(i32 noundef 10, i32 noundef 0, i32 noundef 101, ptr noundef @.str, i32 noundef 795)
  store i32 0, ptr %retval, align 4
  br label %return

if.end:                                           ; preds = %lor.lhs.false2
  call void @BN_init(ptr noundef %k)
  call void @BN_init(ptr noundef %kq)
  %6 = load ptr, ptr %ctx_in.addr, align 8
  store ptr %6, ptr %ctx, align 8
  %7 = load ptr, ptr %ctx, align 8
  %cmp = icmp eq ptr %7, null
  br i1 %cmp, label %if.then4, label %if.end8

if.then4:                                         ; preds = %if.end
  %call = call ptr @BN_CTX_new()
  store ptr %call, ptr %ctx, align 8
  %8 = load ptr, ptr %ctx, align 8
  %cmp5 = icmp eq ptr %8, null
  br i1 %cmp5, label %if.then6, label %if.end7

if.then6:                                         ; preds = %if.then4
  br label %err

if.end7:                                          ; preds = %if.then4
  br label %if.end8

if.end8:                                          ; preds = %if.end7, %if.end
  %call9 = call ptr @BN_new()
  store ptr %call9, ptr %r, align 8
  %9 = load ptr, ptr %r, align 8
  %cmp10 = icmp eq ptr %9, null
  br i1 %cmp10, label %if.then11, label %if.end12

if.then11:                                        ; preds = %if.end8
  br label %err

if.end12:                                         ; preds = %if.end8
  br label %do.body

do.body:                                          ; preds = %do.cond, %if.end12
  %10 = load ptr, ptr %dsa.addr, align 8
  %q13 = getelementptr inbounds %struct.dsa_st, ptr %10, i32 0, i32 2
  %11 = load ptr, ptr %q13, align 8
  %call14 = call i32 @BN_rand_range(ptr noundef %k, ptr noundef %11)
  %tobool15 = icmp ne i32 %call14, 0
  br i1 %tobool15, label %if.end17, label %if.then16

if.then16:                                        ; preds = %do.body
  br label %err

if.end17:                                         ; preds = %do.body
  br label %do.cond

do.cond:                                          ; preds = %if.end17
  %call18 = call i32 @BN_is_zero(ptr noundef %k)
  %tobool19 = icmp ne i32 %call18, 0
  br i1 %tobool19, label %do.body, label %do.end, !llvm.loop !13

do.end:                                           ; preds = %do.cond
  call void @BN_set_flags(ptr noundef %k, i32 noundef 4)
  %12 = load ptr, ptr %dsa.addr, align 8
  %method_mont_p = getelementptr inbounds %struct.dsa_st, ptr %12, i32 0, i32 10
  %13 = load ptr, ptr %dsa.addr, align 8
  %method_mont_p_lock = getelementptr inbounds %struct.dsa_st, ptr %13, i32 0, i32 9
  %14 = load ptr, ptr %dsa.addr, align 8
  %p20 = getelementptr inbounds %struct.dsa_st, ptr %14, i32 0, i32 1
  %15 = load ptr, ptr %p20, align 8
  %16 = load ptr, ptr %ctx, align 8
  %call21 = call i32 @BN_MONT_CTX_set_locked(ptr noundef %method_mont_p, ptr noundef %method_mont_p_lock, ptr noundef %15, ptr noundef %16)
  %tobool22 = icmp ne i32 %call21, 0
  br i1 %tobool22, label %if.end24, label %if.then23

if.then23:                                        ; preds = %do.end
  br label %err

if.end24:                                         ; preds = %do.end
  %call25 = call ptr @BN_copy(ptr noundef %kq, ptr noundef %k)
  %tobool26 = icmp ne ptr %call25, null
  br i1 %tobool26, label %if.end28, label %if.then27

if.then27:                                        ; preds = %if.end24
  br label %err

if.end28:                                         ; preds = %if.end24
  %17 = load ptr, ptr %dsa.addr, align 8
  %q29 = getelementptr inbounds %struct.dsa_st, ptr %17, i32 0, i32 2
  %18 = load ptr, ptr %q29, align 8
  %call30 = call i32 @BN_add(ptr noundef %kq, ptr noundef %kq, ptr noundef %18)
  %tobool31 = icmp ne i32 %call30, 0
  br i1 %tobool31, label %if.end33, label %if.then32

if.then32:                                        ; preds = %if.end28
  br label %err

if.end33:                                         ; preds = %if.end28
  %call34 = call i32 @BN_num_bits(ptr noundef %kq)
  %19 = load ptr, ptr %dsa.addr, align 8
  %q35 = getelementptr inbounds %struct.dsa_st, ptr %19, i32 0, i32 2
  %20 = load ptr, ptr %q35, align 8
  %call36 = call i32 @BN_num_bits(ptr noundef %20)
  %cmp37 = icmp ule i32 %call34, %call36
  br i1 %cmp37, label %land.lhs.true, label %if.end42

land.lhs.true:                                    ; preds = %if.end33
  %21 = load ptr, ptr %dsa.addr, align 8
  %q38 = getelementptr inbounds %struct.dsa_st, ptr %21, i32 0, i32 2
  %22 = load ptr, ptr %q38, align 8
  %call39 = call i32 @BN_add(ptr noundef %kq, ptr noundef %kq, ptr noundef %22)
  %tobool40 = icmp ne i32 %call39, 0
  br i1 %tobool40, label %if.end42, label %if.then41

if.then41:                                        ; preds = %land.lhs.true
  br label %err

if.end42:                                         ; preds = %land.lhs.true, %if.end33
  store ptr %kq, ptr %K, align 8
  %23 = load ptr, ptr %r, align 8
  %24 = load ptr, ptr %dsa.addr, align 8
  %g43 = getelementptr inbounds %struct.dsa_st, ptr %24, i32 0, i32 3
  %25 = load ptr, ptr %g43, align 8
  %26 = load ptr, ptr %K, align 8
  %27 = load ptr, ptr %dsa.addr, align 8
  %p44 = getelementptr inbounds %struct.dsa_st, ptr %27, i32 0, i32 1
  %28 = load ptr, ptr %p44, align 8
  %29 = load ptr, ptr %ctx, align 8
  %30 = load ptr, ptr %dsa.addr, align 8
  %method_mont_p45 = getelementptr inbounds %struct.dsa_st, ptr %30, i32 0, i32 10
  %31 = load ptr, ptr %method_mont_p45, align 8
  %call46 = call i32 @BN_mod_exp_mont(ptr noundef %23, ptr noundef %25, ptr noundef %26, ptr noundef %28, ptr noundef %29, ptr noundef %31)
  %tobool47 = icmp ne i32 %call46, 0
  br i1 %tobool47, label %if.end49, label %if.then48

if.then48:                                        ; preds = %if.end42
  br label %err

if.end49:                                         ; preds = %if.end42
  %32 = load ptr, ptr %r, align 8
  %33 = load ptr, ptr %r, align 8
  %34 = load ptr, ptr %dsa.addr, align 8
  %q50 = getelementptr inbounds %struct.dsa_st, ptr %34, i32 0, i32 2
  %35 = load ptr, ptr %q50, align 8
  %36 = load ptr, ptr %ctx, align 8
  %call51 = call i32 @BN_div(ptr noundef null, ptr noundef %32, ptr noundef %33, ptr noundef %35, ptr noundef %36)
  %tobool52 = icmp ne i32 %call51, 0
  br i1 %tobool52, label %if.end54, label %if.then53

if.then53:                                        ; preds = %if.end49
  br label %err

if.end54:                                         ; preds = %if.end49
  %37 = load ptr, ptr %dsa.addr, align 8
  %q55 = getelementptr inbounds %struct.dsa_st, ptr %37, i32 0, i32 2
  %38 = load ptr, ptr %q55, align 8
  %39 = load ptr, ptr %ctx, align 8
  %call56 = call ptr @BN_mod_inverse(ptr noundef null, ptr noundef %k, ptr noundef %38, ptr noundef %39)
  store ptr %call56, ptr %kinv, align 8
  %40 = load ptr, ptr %kinv, align 8
  %cmp57 = icmp eq ptr %40, null
  br i1 %cmp57, label %if.then58, label %if.end59

if.then58:                                        ; preds = %if.end54
  br label %err

if.end59:                                         ; preds = %if.end54
  %41 = load ptr, ptr %out_kinv.addr, align 8
  %42 = load ptr, ptr %41, align 8
  call void @BN_clear_free(ptr noundef %42)
  %43 = load ptr, ptr %kinv, align 8
  %44 = load ptr, ptr %out_kinv.addr, align 8
  store ptr %43, ptr %44, align 8
  store ptr null, ptr %kinv, align 8
  %45 = load ptr, ptr %out_r.addr, align 8
  %46 = load ptr, ptr %45, align 8
  call void @BN_clear_free(ptr noundef %46)
  %47 = load ptr, ptr %r, align 8
  %48 = load ptr, ptr %out_r.addr, align 8
  store ptr %47, ptr %48, align 8
  store i32 1, ptr %ret, align 4
  br label %err

err:                                              ; preds = %if.end59, %if.then58, %if.then53, %if.then48, %if.then41, %if.then32, %if.then27, %if.then23, %if.then16, %if.then11, %if.then6
  %49 = load i32, ptr %ret, align 4
  %tobool60 = icmp ne i32 %49, 0
  br i1 %tobool60, label %if.end65, label %if.then61

if.then61:                                        ; preds = %err
  call void @ERR_put_error(i32 noundef 10, i32 noundef 0, i32 noundef 3, ptr noundef @.str, i32 noundef 872)
  %50 = load ptr, ptr %r, align 8
  %cmp62 = icmp ne ptr %50, null
  br i1 %cmp62, label %if.then63, label %if.end64

if.then63:                                        ; preds = %if.then61
  %51 = load ptr, ptr %r, align 8
  call void @BN_clear_free(ptr noundef %51)
  br label %if.end64

if.end64:                                         ; preds = %if.then63, %if.then61
  br label %if.end65

if.end65:                                         ; preds = %if.end64, %err
  %52 = load ptr, ptr %ctx_in.addr, align 8
  %cmp66 = icmp eq ptr %52, null
  br i1 %cmp66, label %if.then67, label %if.end68

if.then67:                                        ; preds = %if.end65
  %53 = load ptr, ptr %ctx, align 8
  call void @BN_CTX_free(ptr noundef %53)
  br label %if.end68

if.end68:                                         ; preds = %if.then67, %if.end65
  call void @BN_clear_free(ptr noundef %k)
  call void @BN_clear_free(ptr noundef %kq)
  %54 = load i32, ptr %ret, align 4
  store i32 %54, ptr %retval, align 4
  br label %return

return:                                           ; preds = %if.end68, %if.then
  %55 = load i32, ptr %retval, align 4
  ret i32 %55
}