; Function Attrs: nounwind uwtable
define hidden range(i32 0, 2) i32 @DSA_sign_setup(ptr noundef %dsa, ptr noundef %ctx_in, ptr noundef captures(none) %out_kinv, ptr noundef captures(none) %out_r) local_unnamed_addr #0 {
entry:
  %k = alloca %struct.bignum_st, align 8
  %kq = alloca %struct.bignum_st, align 8
  %p = getelementptr inbounds nuw i8, ptr %dsa, i64 8
  %0 = load ptr, ptr %p, align 8
  %tobool.not = icmp eq ptr %0, null
  br i1 %tobool.not, label %if.then, label %lor.lhs.false

lor.lhs.false:                                    ; preds = %entry
  %q = getelementptr inbounds nuw i8, ptr %dsa, i64 16
  %1 = load ptr, ptr %q, align 8
  %tobool1.not = icmp eq ptr %1, null
  br i1 %tobool1.not, label %if.then, label %lor.lhs.false2

lor.lhs.false2:                                   ; preds = %lor.lhs.false
  %g = getelementptr inbounds nuw i8, ptr %dsa, i64 24
  %2 = load ptr, ptr %g, align 8
  %tobool3.not = icmp eq ptr %2, null
  br i1 %tobool3.not, label %if.then, label %if.end

if.then:                                          ; preds = %lor.lhs.false2, %lor.lhs.false, %entry
  tail call void @ERR_put_error(i32 noundef 10, i32 noundef 0, i32 noundef 101, ptr noundef nonnull @.str, i32 noundef 795) #8
  br label %return

if.end:                                           ; preds = %lor.lhs.false2
  call void @BN_init(ptr noundef nonnull %k) #8
  call void @BN_init(ptr noundef nonnull %kq) #8
  %cmp = icmp eq ptr %ctx_in, null
  br i1 %cmp, label %if.then4, label %if.end8

if.then4:                                         ; preds = %if.end
  %call = call ptr @BN_CTX_new() #8
  %cmp5 = icmp eq ptr %call, null
  br i1 %cmp5, label %if.then61.thread47, label %if.end8

if.end8:                                          ; preds = %if.then4, %if.end
  %ctx.0 = phi ptr [ %call, %if.then4 ], [ %ctx_in, %if.end ]
  %call9 = call ptr @BN_new() #8
  %cmp10 = icmp eq ptr %call9, null
  br i1 %cmp10, label %if.then61.thread47, label %do.body

do.body:                                          ; preds = %if.end8, %do.cond
  %3 = load ptr, ptr %q, align 8
  %call14 = call i32 @BN_rand_range(ptr noundef nonnull %k, ptr noundef %3) #8
  %tobool15.not = icmp eq i32 %call14, 0
  br i1 %tobool15.not, label %if.then63, label %do.cond

do.cond:                                          ; preds = %do.body
  %call18 = call i32 @BN_is_zero(ptr noundef nonnull %k) #8
  %tobool19.not = icmp eq i32 %call18, 0
  br i1 %tobool19.not, label %do.end, label %do.body, !llvm.loop !13

do.end:                                           ; preds = %do.cond
  call void @BN_set_flags(ptr noundef nonnull %k, i32 noundef 4) #8
  %method_mont_p = getelementptr inbounds nuw i8, ptr %dsa, i64 128
  %method_mont_p_lock = getelementptr inbounds nuw i8, ptr %dsa, i64 72
  %4 = load ptr, ptr %p, align 8
  %call21 = call i32 @BN_MONT_CTX_set_locked(ptr noundef nonnull %method_mont_p, ptr noundef nonnull %method_mont_p_lock, ptr noundef %4, ptr noundef nonnull %ctx.0) #8
  %tobool22.not = icmp eq i32 %call21, 0
  br i1 %tobool22.not, label %if.then63, label %if.end24

if.end24:                                         ; preds = %do.end
  %call25 = call ptr @BN_copy(ptr noundef nonnull %kq, ptr noundef nonnull %k) #8
  %tobool26.not = icmp eq ptr %call25, null
  br i1 %tobool26.not, label %if.then63, label %if.end28

if.end28:                                         ; preds = %if.end24
  %5 = load ptr, ptr %q, align 8
  %call30 = call i32 @BN_add(ptr noundef nonnull %kq, ptr noundef nonnull %kq, ptr noundef %5) #8
  %tobool31.not = icmp eq i32 %call30, 0
  br i1 %tobool31.not, label %if.then63, label %if.end33

if.end33:                                         ; preds = %if.end28
  %call34 = call i32 @BN_num_bits(ptr noundef nonnull %kq) #8
  %6 = load ptr, ptr %q, align 8
  %call36 = call i32 @BN_num_bits(ptr noundef %6) #8
  %cmp37.not = icmp ugt i32 %call34, %call36
  br i1 %cmp37.not, label %if.end42, label %land.lhs.true

land.lhs.true:                                    ; preds = %if.end33
  %7 = load ptr, ptr %q, align 8
  %call39 = call i32 @BN_add(ptr noundef nonnull %kq, ptr noundef nonnull %kq, ptr noundef %7) #8
  %tobool40.not = icmp eq i32 %call39, 0
  br i1 %tobool40.not, label %if.then63, label %if.end42

if.end42:                                         ; preds = %land.lhs.true, %if.end33
  %8 = load ptr, ptr %g, align 8
  %9 = load ptr, ptr %p, align 8
  %10 = load ptr, ptr %method_mont_p, align 8
  %call46 = call i32 @BN_mod_exp_mont(ptr noundef nonnull %call9, ptr noundef %8, ptr noundef nonnull %kq, ptr noundef %9, ptr noundef nonnull %ctx.0, ptr noundef %10) #8
  %tobool47.not = icmp eq i32 %call46, 0
  br i1 %tobool47.not, label %if.then63, label %if.end49

if.end49:                                         ; preds = %if.end42
  %11 = load ptr, ptr %q, align 8
  %call51 = call i32 @BN_div(ptr noundef null, ptr noundef nonnull %call9, ptr noundef nonnull %call9, ptr noundef %11, ptr noundef nonnull %ctx.0) #8
  %tobool52.not = icmp eq i32 %call51, 0
  br i1 %tobool52.not, label %if.then63, label %if.end54

if.end54:                                         ; preds = %if.end49
  %12 = load ptr, ptr %q, align 8
  %call56 = call ptr @BN_mod_inverse(ptr noundef null, ptr noundef nonnull %k, ptr noundef %12, ptr noundef nonnull %ctx.0) #8
  %cmp57 = icmp eq ptr %call56, null
  br i1 %cmp57, label %if.then63, label %err

err:                                              ; preds = %if.end54
  %13 = load ptr, ptr %out_kinv, align 8
  call void @BN_clear_free(ptr noundef %13) #8
  store ptr %call56, ptr %out_kinv, align 8
  %14 = load ptr, ptr %out_r, align 8
  call void @BN_clear_free(ptr noundef %14) #8
  store ptr %call9, ptr %out_r, align 8
  br label %if.end65

if.then61.thread47:                               ; preds = %if.end8, %if.then4
  %ctx.1.ph.ph = phi ptr [ null, %if.then4 ], [ %ctx.0, %if.end8 ]
  call void @ERR_put_error(i32 noundef 10, i32 noundef 0, i32 noundef 3, ptr noundef nonnull @.str, i32 noundef 872) #8
  br label %if.end65

if.then63:                                        ; preds = %do.body, %do.end, %if.end24, %if.end28, %land.lhs.true, %if.end54, %if.end49, %if.end42
  call void @ERR_put_error(i32 noundef 10, i32 noundef 0, i32 noundef 3, ptr noundef nonnull @.str, i32 noundef 872) #8
  call void @BN_clear_free(ptr noundef nonnull %call9) #8
  br label %if.end65

if.end65:                                         ; preds = %if.then61.thread47, %err, %if.then63
  %ret.039 = phi i32 [ 0, %if.then63 ], [ 1, %err ], [ 0, %if.then61.thread47 ]
  %ctx.136 = phi ptr [ %ctx.0, %if.then63 ], [ %ctx.0, %err ], [ %ctx.1.ph.ph, %if.then61.thread47 ]
  br i1 %cmp, label %if.then67, label %if.end68

if.then67:                                        ; preds = %if.end65
  call void @BN_CTX_free(ptr noundef %ctx.136) #8
  br label %if.end68

if.end68:                                         ; preds = %if.then67, %if.end65
  call void @BN_clear_free(ptr noundef nonnull %k) #8
  call void @BN_clear_free(ptr noundef nonnull %kq) #8
  br label %return

return:                                           ; preds = %if.end68, %if.then
  %retval.0 = phi i32 [ %ret.039, %if.end68 ], [ 0, %if.then ]
  ret i32 %retval.0
}